ARM GAS  C:\Users\dibiana1\AppData\Local\Temp\ccCPoh0U.s 			page 1


   1              		.syntax unified
   2              		.cpu cortex-m3
   3              		.fpu softvfp
   4              		.eabi_attribute 20, 1
   5              		.eabi_attribute 21, 1
   6              		.eabi_attribute 23, 3
   7              		.eabi_attribute 24, 1
   8              		.eabi_attribute 25, 1
   9              		.eabi_attribute 26, 1
  10              		.eabi_attribute 30, 1
  11              		.eabi_attribute 34, 1
  12              		.eabi_attribute 18, 4
  13              		.thumb
  14              		.syntax unified
  15              		.file	"helper_functions.c"
  16              		.text
  17              	.Ltext0:
  18              		.cfi_sections	.debug_frame
  19              		.section	.text.req_user_values,"ax",%progbits
  20              		.align	2
  21              		.global	req_user_values
  22              		.thumb
  23              		.thumb_func
  24              		.type	req_user_values, %function
  25              	req_user_values:
  26              	.LFB64:
  27              		.file 1 "helper_functions.c"
   1:helper_functions.c **** #ifndef helper_functions_h
   2:helper_functions.c **** #define helper_functions_h
   3:helper_functions.c **** 
   4:helper_functions.c **** #include "project.h"
   5:helper_functions.c **** #include "stdio.h"
   6:helper_functions.c **** 
   7:helper_functions.c **** /*
   8:helper_functions.c **** Function to request values from user, for now it just sets the values explicitly.
   9:helper_functions.c **** */
  10:helper_functions.c **** void req_user_values(int array[5][5]){
  28              		.loc 1 10 0
  29              		.cfi_startproc
  30              		@ args = 0, pretend = 0, frame = 0
  31              		@ frame_needed = 0, uses_anonymous_args = 0
  32              		@ link register save eliminated.
  33              	.LVL0:
  34 0000 10B4     		push	{r4}
  35              		.cfi_def_cfa_offset 4
  36              		.cfi_offset 4, -4
  11:helper_functions.c ****     array[0][0] = 0x00; //x1 and y1
  37              		.loc 1 11 0
  38 0002 0023     		movs	r3, #0
  39 0004 0360     		str	r3, [r0]
  12:helper_functions.c ****     array[0][1] = 0xc8;
  40              		.loc 1 12 0
  41 0006 C822     		movs	r2, #200
  42 0008 4260     		str	r2, [r0, #4]
  13:helper_functions.c ****     array[0][2] = 0xb0;
  43              		.loc 1 13 0
  44 000a B022     		movs	r2, #176
ARM GAS  C:\Users\dibiana1\AppData\Local\Temp\ccCPoh0U.s 			page 2


  45 000c 8260     		str	r2, [r0, #8]
  14:helper_functions.c ****     array[0][3] = 0x04;
  46              		.loc 1 14 0
  47 000e 0422     		movs	r2, #4
  48 0010 C260     		str	r2, [r0, #12]
  15:helper_functions.c ****     array[0][4] = 0x00;
  49              		.loc 1 15 0
  50 0012 0361     		str	r3, [r0, #16]
  16:helper_functions.c ****     
  17:helper_functions.c ****     array[1][0] = 0x01;//x2 and y2
  51              		.loc 1 17 0
  52 0014 0121     		movs	r1, #1
  53 0016 4161     		str	r1, [r0, #20]
  18:helper_functions.c ****     array[1][1] = 0xee;
  54              		.loc 1 18 0
  55 0018 EE21     		movs	r1, #238
  56 001a 8161     		str	r1, [r0, #24]
  19:helper_functions.c ****     array[1][2] = 0x52;
  57              		.loc 1 19 0
  58 001c 5221     		movs	r1, #82
  59 001e C161     		str	r1, [r0, #28]
  20:helper_functions.c ****     array[1][3] = 0x14;
  60              		.loc 1 20 0
  61 0020 1421     		movs	r1, #20
  62 0022 0162     		str	r1, [r0, #32]
  21:helper_functions.c ****     array[1][4] = 0x00;
  63              		.loc 1 21 0
  64 0024 4362     		str	r3, [r0, #36]
  22:helper_functions.c ****     
  23:helper_functions.c ****     array[2][0] = 0x02;//color
  65              		.loc 1 23 0
  66 0026 0224     		movs	r4, #2
  67 0028 8462     		str	r4, [r0, #40]
  24:helper_functions.c ****     array[2][1] = 0xe1;
  68              		.loc 1 24 0
  69 002a E124     		movs	r4, #225
  70 002c C462     		str	r4, [r0, #44]
  25:helper_functions.c ****     array[2][2] = 0x69;
  71              		.loc 1 25 0
  72 002e 6924     		movs	r4, #105
  73 0030 0463     		str	r4, [r0, #48]
  26:helper_functions.c ****     array[2][3] = 0x14;
  74              		.loc 1 26 0
  75 0032 4163     		str	r1, [r0, #52]
  27:helper_functions.c ****     array[2][4] = 0x00;
  76              		.loc 1 27 0
  77 0034 8363     		str	r3, [r0, #56]
  28:helper_functions.c ****     
  29:helper_functions.c ****     array[3][0] = 0x03;//test pat
  78              		.loc 1 29 0
  79 0036 0321     		movs	r1, #3
  80 0038 C163     		str	r1, [r0, #60]
  30:helper_functions.c ****     array[3][1] = 0x00;
  81              		.loc 1 30 0
  82 003a 0364     		str	r3, [r0, #64]
  31:helper_functions.c ****     array[3][2] = 0x00;
  83              		.loc 1 31 0
ARM GAS  C:\Users\dibiana1\AppData\Local\Temp\ccCPoh0U.s 			page 3


  84 003c 4364     		str	r3, [r0, #68]
  32:helper_functions.c ****     array[3][3] = 0x00;
  85              		.loc 1 32 0
  86 003e 8364     		str	r3, [r0, #72]
  33:helper_functions.c ****     array[3][4] = 0x00;
  87              		.loc 1 33 0
  88 0040 C364     		str	r3, [r0, #76]
  34:helper_functions.c ****     
  35:helper_functions.c ****     array[4][0] = 0x04;//end id
  89              		.loc 1 35 0
  90 0042 0265     		str	r2, [r0, #80]
  36:helper_functions.c ****     array[4][1] = 0x00;
  91              		.loc 1 36 0
  92 0044 4365     		str	r3, [r0, #84]
  37:helper_functions.c ****     array[4][2] = 0x00;
  93              		.loc 1 37 0
  94 0046 8365     		str	r3, [r0, #88]
  38:helper_functions.c ****     array[4][3] = 0x00;
  95              		.loc 1 38 0
  96 0048 C365     		str	r3, [r0, #92]
  39:helper_functions.c ****     array[4][4] = 0x00;
  97              		.loc 1 39 0
  98 004a 0366     		str	r3, [r0, #96]
  40:helper_functions.c **** }
  99              		.loc 1 40 0
 100 004c 10BC     		pop	{r4}
 101              		.cfi_restore 4
 102              		.cfi_def_cfa_offset 0
 103 004e 7047     		bx	lr
 104              		.cfi_endproc
 105              	.LFE64:
 106              		.size	req_user_values, .-req_user_values
 107              		.section	.text.sendByte,"ax",%progbits
 108              		.align	2
 109              		.global	sendByte
 110              		.thumb
 111              		.thumb_func
 112              		.type	sendByte, %function
 113              	sendByte:
 114              	.LFB65:
  41:helper_functions.c **** 
  42:helper_functions.c **** /*
  43:helper_functions.c **** Func 2
  44:helper_functions.c **** */
  45:helper_functions.c **** void sendByte(int byte){
 115              		.loc 1 45 0
 116              		.cfi_startproc
 117              		@ args = 0, pretend = 0, frame = 0
 118              		@ frame_needed = 0, uses_anonymous_args = 0
 119              	.LVL1:
 120 0000 08B5     		push	{r3, lr}
 121              		.cfi_def_cfa_offset 8
 122              		.cfi_offset 3, -8
 123              		.cfi_offset 14, -4
  46:helper_functions.c ****     OUT_BYTE_Write(byte);
 124              		.loc 1 46 0
 125 0002 C0B2     		uxtb	r0, r0
ARM GAS  C:\Users\dibiana1\AppData\Local\Temp\ccCPoh0U.s 			page 4


 126              	.LVL2:
 127 0004 FFF7FEFF 		bl	OUT_BYTE_Write
 128              	.LVL3:
 129 0008 08BD     		pop	{r3, pc}
 130              		.cfi_endproc
 131              	.LFE65:
 132              		.size	sendByte, .-sendByte
 133              		.section	.text.reg_write,"ax",%progbits
 134              		.align	2
 135              		.global	reg_write
 136              		.thumb
 137              		.thumb_func
 138              		.type	reg_write, %function
 139              	reg_write:
 140              	.LFB66:
  47:helper_functions.c **** }
  48:helper_functions.c **** 
  49:helper_functions.c **** /*
  50:helper_functions.c **** Func 3
  51:helper_functions.c **** */
  52:helper_functions.c **** void reg_write(uint8_t bytes[5], int psoc_fpga_xfc, int fpga_psoc_xfc)
  53:helper_functions.c **** {
 141              		.loc 1 53 0
 142              		.cfi_startproc
 143              		@ args = 0, pretend = 0, frame = 0
 144              		@ frame_needed = 0, uses_anonymous_args = 0
 145              	.LVL4:
 146 0000 F8B5     		push	{r3, r4, r5, r6, r7, lr}
 147              		.cfi_def_cfa_offset 24
 148              		.cfi_offset 3, -24
 149              		.cfi_offset 4, -20
 150              		.cfi_offset 5, -16
 151              		.cfi_offset 6, -12
 152              		.cfi_offset 7, -8
 153              		.cfi_offset 14, -4
 154 0002 0746     		mov	r7, r0
 155 0004 0E46     		mov	r6, r1
 156 0006 1446     		mov	r4, r2
 157              	.LVL5:
 158              	.LBB2:
  54:helper_functions.c ****     // send each of the 5 bytes, wait until handshake is complete to return
  55:helper_functions.c ****     for(int i = 0; i < 5; i++){
 159              		.loc 1 55 0
 160 0008 0025     		movs	r5, #0
 161 000a 14E0     		b	.L6
 162              	.LVL6:
 163              	.L8:
  56:helper_functions.c ****         sendByte(bytes[i]);
 164              		.loc 1 56 0
 165 000c 785D     		ldrb	r0, [r7, r5]	@ zero_extendqisi2
 166 000e FFF7FEFF 		bl	sendByte
 167              	.LVL7:
  57:helper_functions.c ****         CyDelayCycles(1);
 168              		.loc 1 57 0
 169 0012 0120     		movs	r0, #1
 170 0014 FFF7FEFF 		bl	CyDelayCycles
 171              	.LVL8:
ARM GAS  C:\Users\dibiana1\AppData\Local\Temp\ccCPoh0U.s 			page 5


  58:helper_functions.c ****         psoc_fpga_xfc = 1 - psoc_fpga_xfc;
 172              		.loc 1 58 0
 173 0018 C6F10106 		rsb	r6, r6, #1
 174              	.LVL9:
  59:helper_functions.c ****         H2G_STRB_OUT_Write(psoc_fpga_xfc);
 175              		.loc 1 59 0
 176 001c F0B2     		uxtb	r0, r6
 177 001e FFF7FEFF 		bl	H2G_STRB_OUT_Write
 178              	.LVL10:
 179              	.L7:
  60:helper_functions.c ****         
  61:helper_functions.c ****         while(H2G_STRB_IN_Read() == fpga_psoc_xfc){
 180              		.loc 1 61 0 discriminator 1
 181 0022 FFF7FEFF 		bl	H2G_STRB_IN_Read
 182              	.LVL11:
 183 0026 8442     		cmp	r4, r0
 184 0028 FBD0     		beq	.L7
  62:helper_functions.c ****             //Idle until incoming handshake is toggled
  63:helper_functions.c ****         }
  64:helper_functions.c ****         CyDelayCycles(1);
 185              		.loc 1 64 0 discriminator 2
 186 002a 0120     		movs	r0, #1
 187 002c FFF7FEFF 		bl	CyDelayCycles
 188              	.LVL12:
  65:helper_functions.c ****         fpga_psoc_xfc = 1 - fpga_psoc_xfc;
 189              		.loc 1 65 0 discriminator 2
 190 0030 C4F10104 		rsb	r4, r4, #1
 191              	.LVL13:
  55:helper_functions.c ****         sendByte(bytes[i]);
 192              		.loc 1 55 0 discriminator 2
 193 0034 0135     		adds	r5, r5, #1
 194              	.LVL14:
 195              	.L6:
  55:helper_functions.c ****         sendByte(bytes[i]);
 196              		.loc 1 55 0 is_stmt 0 discriminator 1
 197 0036 042D     		cmp	r5, #4
 198 0038 E8DD     		ble	.L8
 199              	.LBE2:
  66:helper_functions.c ****     }
  67:helper_functions.c **** }
 200              		.loc 1 67 0 is_stmt 1
 201 003a F8BD     		pop	{r3, r4, r5, r6, r7, pc}
 202              		.cfi_endproc
 203              	.LFE66:
 204              		.size	reg_write, .-reg_write
 205              		.text
 206              	.Letext0:
 207              		.file 2 "c:\\program files (x86)\\cypress\\psoc creator\\4.4\\psoc creator\\import\\gnu\\arm\\5.4.
 208              		.file 3 "c:\\program files (x86)\\cypress\\psoc creator\\4.4\\psoc creator\\import\\gnu\\arm\\5.4.
 209              		.file 4 "Generated_Source\\PSoC5/OUT_BYTE.h"
 210              		.file 5 "Generated_Source\\PSoC5/CyLib.h"
 211              		.file 6 "Generated_Source\\PSoC5/H2G_STRB_OUT.h"
 212              		.file 7 "Generated_Source\\PSoC5/H2G_STRB_IN.h"
 213              		.file 8 "Generated_Source\\PSoC5/core_cm3.h"