ARM GAS  C:\Users\dibiana1\AppData\Local\Temp\ccuDcsHK.s 			page 1


   1              		.syntax unified
   2              		.cpu cortex-m3
   3              		.fpu softvfp
   4              		.eabi_attribute 20, 1
   5              		.eabi_attribute 21, 1
   6              		.eabi_attribute 23, 3
   7              		.eabi_attribute 24, 1
   8              		.eabi_attribute 25, 1
   9              		.eabi_attribute 26, 1
  10              		.eabi_attribute 30, 1
  11              		.eabi_attribute 34, 1
  12              		.eabi_attribute 18, 4
  13              		.thumb
  14              		.syntax unified
  15              		.file	"main.c"
  16              		.text
  17              	.Ltext0:
  18              		.cfi_sections	.debug_frame
  19              		.section	.text.sendByte,"ax",%progbits
  20              		.align	2
  21              		.global	sendByte
  22              		.thumb
  23              		.thumb_func
  24              		.type	sendByte, %function
  25              	sendByte:
  26              	.LFB64:
  27              		.file 1 "main.c"
   1:main.c        **** #include "project.h"
   2:main.c        **** #include "stdio.h"
   3:main.c        **** 
   4:main.c        **** 
   5:main.c        **** uint cmdBytes[5];
   6:main.c        **** 
   7:main.c        **** //Method to write a byte value to the output port
   8:main.c        **** void sendByte(int byte){
  28              		.loc 1 8 0
  29              		.cfi_startproc
  30              		@ args = 0, pretend = 0, frame = 0
  31              		@ frame_needed = 0, uses_anonymous_args = 0
  32              	.LVL0:
  33 0000 08B5     		push	{r3, lr}
  34              		.cfi_def_cfa_offset 8
  35              		.cfi_offset 3, -8
  36              		.cfi_offset 14, -4
   9:main.c        ****     OUT_BYTE_Write(byte);
  37              		.loc 1 9 0
  38 0002 C0B2     		uxtb	r0, r0
  39              	.LVL1:
  40 0004 FFF7FEFF 		bl	OUT_BYTE_Write
  41              	.LVL2:
  42 0008 08BD     		pop	{r3, pc}
  43              		.cfi_endproc
  44              	.LFE64:
  45              		.size	sendByte, .-sendByte
  46 000a 00BF     		.section	.text.selectPayloadValue,"ax",%progbits
  47              		.align	2
  48              		.global	selectPayloadValue
ARM GAS  C:\Users\dibiana1\AppData\Local\Temp\ccuDcsHK.s 			page 2


  49              		.thumb
  50              		.thumb_func
  51              		.type	selectPayloadValue, %function
  52              	selectPayloadValue:
  53              	.LFB65:
  10:main.c        **** }
  11:main.c        **** 
  12:main.c        **** //Method to set the values for each of the payload bytes
  13:main.c        **** void selectPayloadValue(stage){
  54              		.loc 1 13 0
  55              		.cfi_startproc
  56              		@ args = 0, pretend = 0, frame = 24
  57              		@ frame_needed = 0, uses_anonymous_args = 0
  58              	.LVL3:
  59 0000 70B5     		push	{r4, r5, r6, lr}
  60              		.cfi_def_cfa_offset 16
  61              		.cfi_offset 4, -16
  62              		.cfi_offset 5, -12
  63              		.cfi_offset 6, -8
  64              		.cfi_offset 14, -4
  65 0002 86B0     		sub	sp, sp, #24
  66              		.cfi_def_cfa_offset 40
  67 0004 0446     		mov	r4, r0
  14:main.c        ****     LCD_ClearDisplay();
  68              		.loc 1 14 0
  69 0006 0120     		movs	r0, #1
  70              	.LVL4:
  71 0008 FFF7FEFF 		bl	LCD_WriteControl
  72              	.LVL5:
  15:main.c        ****     LCD_Position(0,0);
  73              		.loc 1 15 0
  74 000c 0021     		movs	r1, #0
  75 000e 0846     		mov	r0, r1
  76 0010 FFF7FEFF 		bl	LCD_Position
  77              	.LVL6:
  16:main.c        ****     if(stage == 1){
  78              		.loc 1 16 0
  79 0014 012C     		cmp	r4, #1
  80 0016 03D1     		bne	.L4
  17:main.c        ****     LCD_PrintString("Set b7:0 ");   
  81              		.loc 1 17 0
  82 0018 3B48     		ldr	r0, .L21
  83 001a FFF7FEFF 		bl	LCD_PrintString
  84              	.LVL7:
  85 001e 0EE0     		b	.L5
  86              	.L4:
  18:main.c        ****     }
  19:main.c        ****     else if(stage == 2){
  87              		.loc 1 19 0
  88 0020 022C     		cmp	r4, #2
  89 0022 03D1     		bne	.L6
  20:main.c        ****     LCD_PrintString("Set b15:8 ");
  90              		.loc 1 20 0
  91 0024 3948     		ldr	r0, .L21+4
  92 0026 FFF7FEFF 		bl	LCD_PrintString
  93              	.LVL8:
  94 002a 08E0     		b	.L5
ARM GAS  C:\Users\dibiana1\AppData\Local\Temp\ccuDcsHK.s 			page 3


  95              	.L6:
  21:main.c        ****     }
  22:main.c        ****     else if(stage == 3){
  96              		.loc 1 22 0
  97 002c 032C     		cmp	r4, #3
  98 002e 03D1     		bne	.L7
  23:main.c        ****     LCD_PrintString("Set b23:16 ");
  99              		.loc 1 23 0
 100 0030 3748     		ldr	r0, .L21+8
 101 0032 FFF7FEFF 		bl	LCD_PrintString
 102              	.LVL9:
 103 0036 02E0     		b	.L5
 104              	.L7:
  24:main.c        ****     }
  25:main.c        ****     else{
  26:main.c        ****     LCD_PrintString("Set b31:24 ");
 105              		.loc 1 26 0
 106 0038 3648     		ldr	r0, .L21+12
 107 003a FFF7FEFF 		bl	LCD_PrintString
 108              	.LVL10:
 109              	.L5:
  27:main.c        ****     }
  28:main.c        ****     
  29:main.c        ****     LCD_Position(1,0);
 110              		.loc 1 29 0
 111 003e 0021     		movs	r1, #0
 112 0040 0120     		movs	r0, #1
 113 0042 FFF7FEFF 		bl	LCD_Position
 114              	.LVL11:
  30:main.c        ****     LCD_PrintString("Value:");
 115              		.loc 1 30 0
 116 0046 3448     		ldr	r0, .L21+16
 117 0048 FFF7FEFF 		bl	LCD_PrintString
 118              	.LVL12:
  31:main.c        ****     
  32:main.c        ****     char dispStr[2];
  33:main.c        ****     char setMsg[16];
  34:main.c        ****     int selected = 0;
  35:main.c        ****     int byteVal = 0x00;
 119              		.loc 1 35 0
 120 004c 0025     		movs	r5, #0
  34:main.c        ****     int byteVal = 0x00;
 121              		.loc 1 34 0
 122 004e 2E46     		mov	r6, r5
  36:main.c        ****     
  37:main.c        ****     while(selected != 1){
 123              		.loc 1 37 0
 124 0050 1FE0     		b	.L8
 125              	.LVL13:
 126              	.L11:
  38:main.c        ****         if(!SW3_Read()){
 127              		.loc 1 38 0
 128 0052 FFF7FEFF 		bl	SW3_Read
 129              	.LVL14:
 130 0056 00B9     		cbnz	r0, .L9
  39:main.c        ****             selected = 1;
 131              		.loc 1 39 0
ARM GAS  C:\Users\dibiana1\AppData\Local\Temp\ccuDcsHK.s 			page 4


 132 0058 0126     		movs	r6, #1
 133              	.LVL15:
 134              	.L9:
  40:main.c        ****         }
  41:main.c        ****         
  42:main.c        ****         LCD_Position(1,6);
 135              		.loc 1 42 0
 136 005a 0621     		movs	r1, #6
 137 005c 0120     		movs	r0, #1
 138 005e FFF7FEFF 		bl	LCD_Position
 139              	.LVL16:
  43:main.c        ****         sprintf(dispStr, "%x", byteVal);
 140              		.loc 1 43 0
 141 0062 2A46     		mov	r2, r5
 142 0064 2D49     		ldr	r1, .L21+20
 143 0066 05A8     		add	r0, sp, #20
 144 0068 FFF7FEFF 		bl	sprintf
 145              	.LVL17:
  44:main.c        ****         LCD_PrintString(dispStr);
 146              		.loc 1 44 0
 147 006c 05A8     		add	r0, sp, #20
 148 006e FFF7FEFF 		bl	LCD_PrintString
 149              	.LVL18:
  45:main.c        ****         CyDelay(100);
 150              		.loc 1 45 0
 151 0072 6420     		movs	r0, #100
 152 0074 FFF7FEFF 		bl	CyDelay
 153              	.LVL19:
  46:main.c        ****     
  47:main.c        ****         if(stage == 1){
 154              		.loc 1 47 0
 155 0078 012C     		cmp	r4, #1
 156 007a 05D0     		beq	.L17
  48:main.c        ****             byteVal = 0x02;
  49:main.c        ****         }
  50:main.c        ****         else if (stage == 2){
 157              		.loc 1 50 0
 158 007c 022C     		cmp	r4, #2
 159 007e 05D0     		beq	.L18
  51:main.c        ****             byteVal = 0x04;
  52:main.c        ****         }    
  53:main.c        ****         else if (stage == 3){
 160              		.loc 1 53 0
 161 0080 032C     		cmp	r4, #3
 162 0082 05D1     		bne	.L19
  54:main.c        ****             byteVal = 0x06;        
 163              		.loc 1 54 0
 164 0084 0625     		movs	r5, #6
 165              	.LVL20:
 166 0086 04E0     		b	.L8
 167              	.LVL21:
 168              	.L17:
  48:main.c        ****             byteVal = 0x02;
 169              		.loc 1 48 0
 170 0088 0225     		movs	r5, #2
 171              	.LVL22:
 172 008a 02E0     		b	.L8
ARM GAS  C:\Users\dibiana1\AppData\Local\Temp\ccuDcsHK.s 			page 5


 173              	.LVL23:
 174              	.L18:
  51:main.c        ****             byteVal = 0x04;
 175              		.loc 1 51 0
 176 008c 0425     		movs	r5, #4
 177              	.LVL24:
 178 008e 00E0     		b	.L8
 179              	.LVL25:
 180              	.L19:
  55:main.c        ****         }
  56:main.c        ****         else{
  57:main.c        ****             byteVal = 0x08;
 181              		.loc 1 57 0
 182 0090 0825     		movs	r5, #8
 183              	.LVL26:
 184              	.L8:
  37:main.c        ****         if(!SW3_Read()){
 185              		.loc 1 37 0
 186 0092 002E     		cmp	r6, #0
 187 0094 DDD0     		beq	.L11
  58:main.c        ****         }
  59:main.c        ****     }
  60:main.c        **** 
  61:main.c        ****     if(stage == 1){
 188              		.loc 1 61 0
 189 0096 012C     		cmp	r4, #1
 190 0098 02D1     		bne	.L12
  62:main.c        ****         cmdBytes[1] = byteVal;    
 191              		.loc 1 62 0
 192 009a 214B     		ldr	r3, .L21+24
 193 009c 5D60     		str	r5, [r3, #4]
 194 009e 0BE0     		b	.L13
 195              	.L12:
  63:main.c        ****     }
  64:main.c        ****     else if(stage == 2){
 196              		.loc 1 64 0
 197 00a0 022C     		cmp	r4, #2
 198 00a2 02D1     		bne	.L14
  65:main.c        ****         cmdBytes[2] = byteVal;
 199              		.loc 1 65 0
 200 00a4 1E4B     		ldr	r3, .L21+24
 201 00a6 9D60     		str	r5, [r3, #8]
 202 00a8 06E0     		b	.L13
 203              	.L14:
  66:main.c        ****     }
  67:main.c        ****     else if(stage == 3){
 204              		.loc 1 67 0
 205 00aa 032C     		cmp	r4, #3
 206 00ac 02D1     		bne	.L15
  68:main.c        ****         cmdBytes[3] = byteVal;
 207              		.loc 1 68 0
 208 00ae 1C4B     		ldr	r3, .L21+24
 209 00b0 DD60     		str	r5, [r3, #12]
 210 00b2 01E0     		b	.L13
 211              	.L15:
  69:main.c        ****     }
  70:main.c        ****     else{
ARM GAS  C:\Users\dibiana1\AppData\Local\Temp\ccuDcsHK.s 			page 6


  71:main.c        ****         cmdBytes[4] = byteVal;
 212              		.loc 1 71 0
 213 00b4 1A4B     		ldr	r3, .L21+24
 214 00b6 1D61     		str	r5, [r3, #16]
 215              	.L13:
  72:main.c        ****     }
  73:main.c        ****     
  74:main.c        ****     LCD_ClearDisplay();
 216              		.loc 1 74 0
 217 00b8 0120     		movs	r0, #1
 218 00ba FFF7FEFF 		bl	LCD_WriteControl
 219              	.LVL27:
  75:main.c        ****     LCD_Position(0,0);
 220              		.loc 1 75 0
 221 00be 0021     		movs	r1, #0
 222 00c0 0846     		mov	r0, r1
 223 00c2 FFF7FEFF 		bl	LCD_Position
 224              	.LVL28:
  76:main.c        ****     sprintf(setMsg, "Byte%d value set.", stage);
 225              		.loc 1 76 0
 226 00c6 2246     		mov	r2, r4
 227 00c8 1649     		ldr	r1, .L21+28
 228 00ca 01A8     		add	r0, sp, #4
 229 00cc FFF7FEFF 		bl	sprintf
 230              	.LVL29:
  77:main.c        ****     LCD_PrintString(setMsg);
 231              		.loc 1 77 0
 232 00d0 01A8     		add	r0, sp, #4
 233 00d2 FFF7FEFF 		bl	LCD_PrintString
 234              	.LVL30:
  78:main.c        ****     LCD_Position(1,0);
 235              		.loc 1 78 0
 236 00d6 0021     		movs	r1, #0
 237 00d8 0120     		movs	r0, #1
 238 00da FFF7FEFF 		bl	LCD_Position
 239              	.LVL31:
  79:main.c        ****     LCD_PrintString("Value:");
 240              		.loc 1 79 0
 241 00de 0E48     		ldr	r0, .L21+16
 242 00e0 FFF7FEFF 		bl	LCD_PrintString
 243              	.LVL32:
  80:main.c        ****     LCD_Position(1,6);
 244              		.loc 1 80 0
 245 00e4 0621     		movs	r1, #6
 246 00e6 0120     		movs	r0, #1
 247 00e8 FFF7FEFF 		bl	LCD_Position
 248              	.LVL33:
  81:main.c        ****     sprintf(dispStr, "%x", byteVal);
 249              		.loc 1 81 0
 250 00ec 2A46     		mov	r2, r5
 251 00ee 0B49     		ldr	r1, .L21+20
 252 00f0 05A8     		add	r0, sp, #20
 253 00f2 FFF7FEFF 		bl	sprintf
 254              	.LVL34:
  82:main.c        ****     LCD_PrintString(dispStr);
 255              		.loc 1 82 0
 256 00f6 05A8     		add	r0, sp, #20
ARM GAS  C:\Users\dibiana1\AppData\Local\Temp\ccuDcsHK.s 			page 7


 257 00f8 FFF7FEFF 		bl	LCD_PrintString
 258              	.LVL35:
  83:main.c        ****     CyDelay(1000);
 259              		.loc 1 83 0
 260 00fc 4FF47A70 		mov	r0, #1000
 261 0100 FFF7FEFF 		bl	CyDelay
 262              	.LVL36:
  84:main.c        **** }
 263              		.loc 1 84 0
 264 0104 06B0     		add	sp, sp, #24
 265              		.cfi_def_cfa_offset 16
 266              		@ sp needed
 267 0106 70BD     		pop	{r4, r5, r6, pc}
 268              	.LVL37:
 269              	.L22:
 270              		.align	2
 271              	.L21:
 272 0108 00000000 		.word	.LC0
 273 010c 0C000000 		.word	.LC1
 274 0110 18000000 		.word	.LC2
 275 0114 24000000 		.word	.LC3
 276 0118 30000000 		.word	.LC4
 277 011c 38000000 		.word	.LC5
 278 0120 00000000 		.word	cmdBytes
 279 0124 3C000000 		.word	.LC6
 280              		.cfi_endproc
 281              	.LFE65:
 282              		.size	selectPayloadValue, .-selectPayloadValue
 283              		.section	.text.main,"ax",%progbits
 284              		.align	2
 285              		.global	main
 286              		.thumb
 287              		.thumb_func
 288              		.type	main, %function
 289              	main:
 290              	.LFB66:
  85:main.c        **** 
  86:main.c        **** int main(void)
  87:main.c        **** {
 291              		.loc 1 87 0
 292              		.cfi_startproc
 293              		@ args = 0, pretend = 0, frame = 8
 294              		@ frame_needed = 0, uses_anonymous_args = 0
 295 0000 F0B5     		push	{r4, r5, r6, r7, lr}
 296              		.cfi_def_cfa_offset 20
 297              		.cfi_offset 4, -20
 298              		.cfi_offset 5, -16
 299              		.cfi_offset 6, -12
 300              		.cfi_offset 7, -8
 301              		.cfi_offset 14, -4
 302 0002 83B0     		sub	sp, sp, #12
 303              		.cfi_def_cfa_offset 32
  88:main.c        ****     CyGlobalIntEnable; /* Enable global interrupts. */
 304              		.loc 1 88 0
 305              		.syntax unified
 306              	@ 88 "main.c" 1
 307 0004 62B6     		CPSIE   i
ARM GAS  C:\Users\dibiana1\AppData\Local\Temp\ccuDcsHK.s 			page 8


 308              	@ 0 "" 2
  89:main.c        **** 
  90:main.c        ****     LCD_Start();
 309              		.loc 1 90 0
 310              		.thumb
 311              		.syntax unified
 312 0006 FFF7FEFF 		bl	LCD_Start
 313              	.LVL38:
  91:main.c        ****     LCD_ClearDisplay();
 314              		.loc 1 91 0
 315 000a 0120     		movs	r0, #1
 316 000c FFF7FEFF 		bl	LCD_WriteControl
 317              	.LVL39:
  92:main.c        ****     
  93:main.c        ****     char dispVal[1];
  94:main.c        ****     char rcvdStatus[1];
  95:main.c        **** 
  96:main.c        ****     int addr_flag = 0;
  97:main.c        ****     int psoc_fpga_xfc = 0;  // state of output strobe
  98:main.c        ****     int fpga_psoc_xfc = 0;  // state of input strobe
  99:main.c        ****     H2G_STRB_OUT_Write(psoc_fpga_xfc);
 318              		.loc 1 99 0
 319 0010 0020     		movs	r0, #0
 320 0012 FFF7FEFF 		bl	H2G_STRB_OUT_Write
 321              	.LVL40:
  98:main.c        ****     H2G_STRB_OUT_Write(psoc_fpga_xfc);
 322              		.loc 1 98 0
 323 0016 0024     		movs	r4, #0
  97:main.c        ****     int fpga_psoc_xfc = 0;  // state of input strobe
 324              		.loc 1 97 0
 325 0018 2646     		mov	r6, r4
 326              	.LVL41:
 327              	.L35:
 328              	.LBB2:
 100:main.c        **** 
 101:main.c        ****     //SW2 used for selection of data
 102:main.c        ****     //SW3 used to progress to next stage
 103:main.c        ****     
 104:main.c        ****     for(;;)
 105:main.c        ****     {   
 106:main.c        ****         addr_flag = 0;
 107:main.c        ****         
 108:main.c        ****         LCD_ClearDisplay();
 329              		.loc 1 108 0
 330 001a 0120     		movs	r0, #1
 331 001c FFF7FEFF 		bl	LCD_WriteControl
 332              	.LVL42:
 109:main.c        ****         LCD_Position(0,0);
 333              		.loc 1 109 0
 334 0020 0021     		movs	r1, #0
 335 0022 0846     		mov	r0, r1
 336 0024 FFF7FEFF 		bl	LCD_Position
 337              	.LVL43:
 110:main.c        ****         LCD_PrintString("RegWrite CMD");
 338              		.loc 1 110 0
 339 0028 7748     		ldr	r0, .L38
 340 002a FFF7FEFF 		bl	LCD_PrintString
ARM GAS  C:\Users\dibiana1\AppData\Local\Temp\ccuDcsHK.s 			page 9


 341              	.LVL44:
 111:main.c        ****         LCD_Position(1,0);
 342              		.loc 1 111 0
 343 002e 0021     		movs	r1, #0
 344 0030 0120     		movs	r0, #1
 345 0032 FFF7FEFF 		bl	LCD_Position
 346              	.LVL45:
 112:main.c        ****         LCD_PrintString("5 bytes total");
 347              		.loc 1 112 0
 348 0036 7548     		ldr	r0, .L38+4
 349 0038 FFF7FEFF 		bl	LCD_PrintString
 350              	.LVL46:
 113:main.c        **** 
 114:main.c        ****         CyDelay(750);
 351              		.loc 1 114 0
 352 003c 40F2EE20 		movw	r0, #750
 353 0040 FFF7FEFF 		bl	CyDelay
 354              	.LVL47:
 115:main.c        ****         
 116:main.c        ****         LCD_ClearDisplay();
 355              		.loc 1 116 0
 356 0044 0120     		movs	r0, #1
 357 0046 FFF7FEFF 		bl	LCD_WriteControl
 358              	.LVL48:
 117:main.c        ****         
 118:main.c        ****         int addrVal = 0;
 119:main.c        ****         
 120:main.c        ****         char dispString[2];
 121:main.c        ****         
 122:main.c        ****         LCD_Position(0,0);
 359              		.loc 1 122 0
 360 004a 0021     		movs	r1, #0
 361 004c 0846     		mov	r0, r1
 362 004e FFF7FEFF 		bl	LCD_Position
 363              	.LVL49:
 123:main.c        ****         LCD_PrintString("Select an addr:");
 364              		.loc 1 123 0
 365 0052 6F48     		ldr	r0, .L38+8
 366 0054 FFF7FEFF 		bl	LCD_PrintString
 367              	.LVL50:
 124:main.c        ****         LCD_Position(1,0);
 368              		.loc 1 124 0
 369 0058 0021     		movs	r1, #0
 370 005a 0120     		movs	r0, #1
 371 005c FFF7FEFF 		bl	LCD_Position
 372              	.LVL51:
 125:main.c        ****         LCD_PrintString("Addr:");
 373              		.loc 1 125 0
 374 0060 6C48     		ldr	r0, .L38+12
 375 0062 FFF7FEFF 		bl	LCD_PrintString
 376              	.LVL52:
 106:main.c        ****         
 377              		.loc 1 106 0
 378 0066 0025     		movs	r5, #0
 126:main.c        ****         
 127:main.c        ****         //loop for user to select one of 8 registers to write to
 128:main.c        ****         while(addr_flag != 1){
ARM GAS  C:\Users\dibiana1\AppData\Local\Temp\ccuDcsHK.s 			page 10


 379              		.loc 1 128 0
 380 0068 0FE0     		b	.L24
 381              	.LVL53:
 382              	.L26:
 129:main.c        ****             if(!SW3_Read()){
 383              		.loc 1 129 0
 384 006a FFF7FEFF 		bl	SW3_Read
 385              	.LVL54:
 386 006e 00B9     		cbnz	r0, .L25
 130:main.c        ****                 addr_flag = 1;
 387              		.loc 1 130 0
 388 0070 0125     		movs	r5, #1
 389              	.LVL55:
 390              	.L25:
 131:main.c        ****             }
 132:main.c        ****             
 133:main.c        ****             LCD_Position(1,5);
 391              		.loc 1 133 0
 392 0072 0521     		movs	r1, #5
 393 0074 0120     		movs	r0, #1
 394 0076 FFF7FEFF 		bl	LCD_Position
 395              	.LVL56:
 134:main.c        ****             sprintf(dispString, "%x", addrVal);
 396              		.loc 1 134 0
 397 007a 0022     		movs	r2, #0
 398 007c 6649     		ldr	r1, .L38+16
 399 007e 01A8     		add	r0, sp, #4
 400 0080 FFF7FEFF 		bl	sprintf
 401              	.LVL57:
 135:main.c        ****             LCD_PrintString(dispString);
 402              		.loc 1 135 0
 403 0084 01A8     		add	r0, sp, #4
 404 0086 FFF7FEFF 		bl	LCD_PrintString
 405              	.LVL58:
 406              	.L24:
 128:main.c        ****             if(!SW3_Read()){
 407              		.loc 1 128 0
 408 008a 002D     		cmp	r5, #0
 409 008c EDD0     		beq	.L26
 136:main.c        **** 
 137:main.c        ****             addrVal = 0x00;  //setting explicitly for testing fpga
 138:main.c        ****             /*
 139:main.c        ****             CyDelay(100);
 140:main.c        ****             
 141:main.c        ****             if( addrVal == 15){
 142:main.c        ****                 addrVal = 0x00;
 143:main.c        ****             }
 144:main.c        ****             else{
 145:main.c        ****             addrVal = addrVal + 1;
 146:main.c        ****             }
 147:main.c        ****             */
 148:main.c        ****         }
 149:main.c        ****         cmdBytes[0] = addrVal;
 410              		.loc 1 149 0
 411 008e 634F     		ldr	r7, .L38+20
 412 0090 0025     		movs	r5, #0
 413              	.LVL59:
ARM GAS  C:\Users\dibiana1\AppData\Local\Temp\ccuDcsHK.s 			page 11


 414 0092 3D60     		str	r5, [r7]
 150:main.c        ****         
 151:main.c        ****         LCD_ClearDisplay();
 415              		.loc 1 151 0
 416 0094 0120     		movs	r0, #1
 417 0096 FFF7FEFF 		bl	LCD_WriteControl
 418              	.LVL60:
 152:main.c        ****         LCD_Position(0,0);
 419              		.loc 1 152 0
 420 009a 2946     		mov	r1, r5
 421 009c 2846     		mov	r0, r5
 422 009e FFF7FEFF 		bl	LCD_Position
 423              	.LVL61:
 153:main.c        ****         LCD_PrintString("Address set.");
 424              		.loc 1 153 0
 425 00a2 5F48     		ldr	r0, .L38+24
 426 00a4 FFF7FEFF 		bl	LCD_PrintString
 427              	.LVL62:
 154:main.c        ****         LCD_Position(1,0);
 428              		.loc 1 154 0
 429 00a8 2946     		mov	r1, r5
 430 00aa 0120     		movs	r0, #1
 431 00ac FFF7FEFF 		bl	LCD_Position
 432              	.LVL63:
 155:main.c        ****         LCD_PrintString("Address:");
 433              		.loc 1 155 0
 434 00b0 5C48     		ldr	r0, .L38+28
 435 00b2 FFF7FEFF 		bl	LCD_PrintString
 436              	.LVL64:
 156:main.c        ****         sprintf(dispString, "%x", cmdBytes[0]);
 437              		.loc 1 156 0
 438 00b6 3A68     		ldr	r2, [r7]
 439 00b8 5749     		ldr	r1, .L38+16
 440 00ba 01A8     		add	r0, sp, #4
 441 00bc FFF7FEFF 		bl	sprintf
 442              	.LVL65:
 157:main.c        ****         LCD_Position(1,8);
 443              		.loc 1 157 0
 444 00c0 0821     		movs	r1, #8
 445 00c2 0120     		movs	r0, #1
 446 00c4 FFF7FEFF 		bl	LCD_Position
 447              	.LVL66:
 158:main.c        ****         LCD_PrintString(dispString);
 448              		.loc 1 158 0
 449 00c8 01A8     		add	r0, sp, #4
 450 00ca FFF7FEFF 		bl	LCD_PrintString
 451              	.LVL67:
 159:main.c        ****         CyDelay(1000);
 452              		.loc 1 159 0
 453 00ce 4FF47A70 		mov	r0, #1000
 454 00d2 FFF7FEFF 		bl	CyDelay
 455              	.LVL68:
 456              	.LBB3:
 160:main.c        ****         
 161:main.c        ****         //small loop for user to select values for each payload byte, stored to be sent after all h
 162:main.c        ****         for(int stage = 1; stage <5; stage++){
 457              		.loc 1 162 0
ARM GAS  C:\Users\dibiana1\AppData\Local\Temp\ccuDcsHK.s 			page 12


 458 00d6 0125     		movs	r5, #1
 459 00d8 03E0     		b	.L27
 460              	.LVL69:
 461              	.L28:
 163:main.c        ****             //selectPayloadValue function, taking stage as argument
 164:main.c        ****             selectPayloadValue(stage);
 462              		.loc 1 164 0 discriminator 3
 463 00da 2846     		mov	r0, r5
 464 00dc FFF7FEFF 		bl	selectPayloadValue
 465              	.LVL70:
 162:main.c        ****             //selectPayloadValue function, taking stage as argument
 466              		.loc 1 162 0 discriminator 3
 467 00e0 0135     		adds	r5, r5, #1
 468              	.LVL71:
 469              	.L27:
 162:main.c        ****             //selectPayloadValue function, taking stage as argument
 470              		.loc 1 162 0 is_stmt 0 discriminator 1
 471 00e2 042D     		cmp	r5, #4
 472 00e4 F9DD     		ble	.L28
 473              	.LBE3:
 165:main.c        ****         }    
 166:main.c        ****         LCD_ClearDisplay();
 474              		.loc 1 166 0 is_stmt 1
 475 00e6 0120     		movs	r0, #1
 476 00e8 FFF7FEFF 		bl	LCD_WriteControl
 477              	.LVL72:
 167:main.c        ****         
 168:main.c        ****         while(SW3_Read()){
 478              		.loc 1 168 0
 479 00ec 39E0     		b	.L29
 480              	.LVL73:
 481              	.L30:
 169:main.c        ****         LCD_Position(0,0);
 482              		.loc 1 169 0
 483 00ee 0021     		movs	r1, #0
 484 00f0 0846     		mov	r0, r1
 485 00f2 FFF7FEFF 		bl	LCD_Position
 486              	.LVL74:
 170:main.c        ****         LCD_PrintString("CMD to be sent: ");
 487              		.loc 1 170 0
 488 00f6 4C48     		ldr	r0, .L38+32
 489 00f8 FFF7FEFF 		bl	LCD_PrintString
 490              	.LVL75:
 171:main.c        ****         LCD_Position(1,0);
 491              		.loc 1 171 0
 492 00fc 0021     		movs	r1, #0
 493 00fe 0120     		movs	r0, #1
 494 0100 FFF7FEFF 		bl	LCD_Position
 495              	.LVL76:
 172:main.c        ****         LCD_PrintHexUint8(cmdBytes[0]);
 496              		.loc 1 172 0
 497 0104 454D     		ldr	r5, .L38+20
 498 0106 2878     		ldrb	r0, [r5]	@ zero_extendqisi2
 499 0108 FFF7FEFF 		bl	LCD_PrintInt8
 500              	.LVL77:
 173:main.c        ****         LCD_Position(1,3);
 501              		.loc 1 173 0
ARM GAS  C:\Users\dibiana1\AppData\Local\Temp\ccuDcsHK.s 			page 13


 502 010c 0321     		movs	r1, #3
 503 010e 0120     		movs	r0, #1
 504 0110 FFF7FEFF 		bl	LCD_Position
 505              	.LVL78:
 174:main.c        ****         LCD_PrintHexUint8(cmdBytes[4]);
 506              		.loc 1 174 0
 507 0114 287C     		ldrb	r0, [r5, #16]	@ zero_extendqisi2
 508 0116 FFF7FEFF 		bl	LCD_PrintInt8
 509              	.LVL79:
 175:main.c        ****         LCD_Position(1,6);
 510              		.loc 1 175 0
 511 011a 0621     		movs	r1, #6
 512 011c 0120     		movs	r0, #1
 513 011e FFF7FEFF 		bl	LCD_Position
 514              	.LVL80:
 176:main.c        ****         LCD_PrintHexUint8(cmdBytes[3]);
 515              		.loc 1 176 0
 516 0122 287B     		ldrb	r0, [r5, #12]	@ zero_extendqisi2
 517 0124 FFF7FEFF 		bl	LCD_PrintInt8
 518              	.LVL81:
 177:main.c        ****         LCD_Position(1,9);
 519              		.loc 1 177 0
 520 0128 0921     		movs	r1, #9
 521 012a 0120     		movs	r0, #1
 522 012c FFF7FEFF 		bl	LCD_Position
 523              	.LVL82:
 178:main.c        ****         LCD_PrintHexUint8(cmdBytes[2]);
 524              		.loc 1 178 0
 525 0130 287A     		ldrb	r0, [r5, #8]	@ zero_extendqisi2
 526 0132 FFF7FEFF 		bl	LCD_PrintInt8
 527              	.LVL83:
 179:main.c        ****         LCD_Position(1,12);
 528              		.loc 1 179 0
 529 0136 0C21     		movs	r1, #12
 530 0138 0120     		movs	r0, #1
 531 013a FFF7FEFF 		bl	LCD_Position
 532              	.LVL84:
 180:main.c        ****         LCD_PrintHexUint8(cmdBytes[1]);
 533              		.loc 1 180 0
 534 013e 2879     		ldrb	r0, [r5, #4]	@ zero_extendqisi2
 535 0140 FFF7FEFF 		bl	LCD_PrintInt8
 536              	.LVL85:
 181:main.c        ****         CyDelay(1000);
 537              		.loc 1 181 0
 538 0144 4FF47A70 		mov	r0, #1000
 539 0148 FFF7FEFF 		bl	CyDelay
 540              	.LVL86:
 182:main.c        ****         LCD_Position(0,0);
 541              		.loc 1 182 0
 542 014c 0021     		movs	r1, #0
 543 014e 0846     		mov	r0, r1
 544 0150 FFF7FEFF 		bl	LCD_Position
 545              	.LVL87:
 183:main.c        ****         LCD_PrintString("Addr,B4,B3,B2,B1");
 546              		.loc 1 183 0
 547 0154 3548     		ldr	r0, .L38+36
 548 0156 FFF7FEFF 		bl	LCD_PrintString
ARM GAS  C:\Users\dibiana1\AppData\Local\Temp\ccuDcsHK.s 			page 14


 549              	.LVL88:
 184:main.c        ****         CyDelay(1000);
 550              		.loc 1 184 0
 551 015a 4FF47A70 		mov	r0, #1000
 552 015e FFF7FEFF 		bl	CyDelay
 553              	.LVL89:
 554              	.L29:
 168:main.c        ****         LCD_Position(0,0);
 555              		.loc 1 168 0
 556 0162 FFF7FEFF 		bl	SW3_Read
 557              	.LVL90:
 558 0166 0028     		cmp	r0, #0
 559 0168 C1D1     		bne	.L30
 185:main.c        ****         }
 186:main.c        ****         
 187:main.c        **** 
 188:main.c        ****         LCD_Position(0,0);
 560              		.loc 1 188 0
 561 016a 0021     		movs	r1, #0
 562 016c 0846     		mov	r0, r1
 563 016e FFF7FEFF 		bl	LCD_Position
 564              	.LVL91:
 189:main.c        ****         LCD_PrintString("Sending addr... ");
 565              		.loc 1 189 0
 566 0172 2F48     		ldr	r0, .L38+40
 567 0174 FFF7FEFF 		bl	LCD_PrintString
 568              	.LVL92:
 190:main.c        ****         
 191:main.c        ****         //write bytes to output
 192:main.c        ****         //send CMDcode/addrss byte first, then loop through payload bytes to send correctly
 193:main.c        ****         sendByte(cmdBytes[0]);
 569              		.loc 1 193 0
 570 0178 284B     		ldr	r3, .L38+20
 571 017a 1868     		ldr	r0, [r3]
 572 017c FFF7FEFF 		bl	sendByte
 573              	.LVL93:
 194:main.c        ****         CyDelayCycles(1);
 574              		.loc 1 194 0
 575 0180 0120     		movs	r0, #1
 576 0182 FFF7FEFF 		bl	CyDelayCycles
 577              	.LVL94:
 195:main.c        ****         psoc_fpga_xfc = 1 - psoc_fpga_xfc;
 578              		.loc 1 195 0
 579 0186 C6F10106 		rsb	r6, r6, #1
 580              	.LVL95:
 196:main.c        ****         H2G_STRB_OUT_Write(psoc_fpga_xfc);
 581              		.loc 1 196 0
 582 018a F0B2     		uxtb	r0, r6
 583 018c FFF7FEFF 		bl	H2G_STRB_OUT_Write
 584              	.LVL96:
 585              	.L31:
 197:main.c        ****         
 198:main.c        ****         while(H2G_STRB_IN_Read() == fpga_psoc_xfc){
 586              		.loc 1 198 0 discriminator 1
 587 0190 FFF7FEFF 		bl	H2G_STRB_IN_Read
 588              	.LVL97:
 589 0194 8442     		cmp	r4, r0
ARM GAS  C:\Users\dibiana1\AppData\Local\Temp\ccuDcsHK.s 			page 15


 590 0196 FBD0     		beq	.L31
 199:main.c        ****             //Idle until incoming handshake is toggled
 200:main.c        ****         }
 201:main.c        ****         CyDelayCycles(1);
 591              		.loc 1 201 0
 592 0198 0120     		movs	r0, #1
 593 019a FFF7FEFF 		bl	CyDelayCycles
 594              	.LVL98:
 202:main.c        ****         fpga_psoc_xfc = 1 - fpga_psoc_xfc;
 595              		.loc 1 202 0
 596 019e C4F10104 		rsb	r4, r4, #1
 597              	.LVL99:
 203:main.c        ****         
 204:main.c        **** 
 205:main.c        ****         LCD_Position(0,0);
 598              		.loc 1 205 0
 599 01a2 0021     		movs	r1, #0
 600 01a4 0846     		mov	r0, r1
 601 01a6 FFF7FEFF 		bl	LCD_Position
 602              	.LVL100:
 206:main.c        ****         LCD_PrintString("Addr received");
 603              		.loc 1 206 0
 604 01aa 2248     		ldr	r0, .L38+44
 605 01ac FFF7FEFF 		bl	LCD_PrintString
 606              	.LVL101:
 207:main.c        ****         CyDelay(500);
 607              		.loc 1 207 0
 608 01b0 4FF4FA70 		mov	r0, #500
 609 01b4 FFF7FEFF 		bl	CyDelay
 610              	.LVL102:
 208:main.c        ****         LCD_Position(0,0);
 611              		.loc 1 208 0
 612 01b8 0021     		movs	r1, #0
 613 01ba 0846     		mov	r0, r1
 614 01bc FFF7FEFF 		bl	LCD_Position
 615              	.LVL103:
 209:main.c        ****         LCD_PrintString("Sending payload...");
 616              		.loc 1 209 0
 617 01c0 1D48     		ldr	r0, .L38+48
 618 01c2 FFF7FEFF 		bl	LCD_PrintString
 619              	.LVL104:
 620              	.LBB4:
 210:main.c        ****         for(int i = 1 ; i <5; i++){
 621              		.loc 1 210 0
 622 01c6 0125     		movs	r5, #1
 623 01c8 10E0     		b	.L32
 624              	.LVL105:
 625              	.L34:
 211:main.c        ****             sendByte(cmdBytes[i]); 
 626              		.loc 1 211 0
 627 01ca 144B     		ldr	r3, .L38+20
 628 01cc 53F82500 		ldr	r0, [r3, r5, lsl #2]
 629 01d0 FFF7FEFF 		bl	sendByte
 630              	.LVL106:
 212:main.c        ****             
 213:main.c        ****             
 214:main.c        ****             psoc_fpga_xfc = 1 - psoc_fpga_xfc;
ARM GAS  C:\Users\dibiana1\AppData\Local\Temp\ccuDcsHK.s 			page 16


 631              		.loc 1 214 0
 632 01d4 C6F10106 		rsb	r6, r6, #1
 633              	.LVL107:
 215:main.c        ****             H2G_STRB_OUT_Write(psoc_fpga_xfc);
 634              		.loc 1 215 0
 635 01d8 F0B2     		uxtb	r0, r6
 636 01da FFF7FEFF 		bl	H2G_STRB_OUT_Write
 637              	.LVL108:
 638              	.L33:
 216:main.c        ****         
 217:main.c        ****             while(H2G_STRB_IN_Read() == fpga_psoc_xfc){
 639              		.loc 1 217 0 discriminator 1
 640 01de FFF7FEFF 		bl	H2G_STRB_IN_Read
 641              	.LVL109:
 642 01e2 8442     		cmp	r4, r0
 643 01e4 FBD0     		beq	.L33
 218:main.c        ****             //Idle until incoming handshake is toggled
 219:main.c        ****             }
 220:main.c        ****             fpga_psoc_xfc = 1 - fpga_psoc_xfc;
 644              		.loc 1 220 0 discriminator 2
 645 01e6 C4F10104 		rsb	r4, r4, #1
 646              	.LVL110:
 210:main.c        ****             sendByte(cmdBytes[i]); 
 647              		.loc 1 210 0 discriminator 2
 648 01ea 0135     		adds	r5, r5, #1
 649              	.LVL111:
 650              	.L32:
 210:main.c        ****             sendByte(cmdBytes[i]); 
 651              		.loc 1 210 0 is_stmt 0 discriminator 1
 652 01ec 042D     		cmp	r5, #4
 653 01ee ECDD     		ble	.L34
 654              	.LBE4:
 221:main.c        ****         }
 222:main.c        ****         
 223:main.c        ****         LCD_ClearDisplay();
 655              		.loc 1 223 0 is_stmt 1
 656 01f0 0120     		movs	r0, #1
 657 01f2 FFF7FEFF 		bl	LCD_WriteControl
 658              	.LVL112:
 224:main.c        ****         LCD_PrintString("Command sent!");
 659              		.loc 1 224 0
 660 01f6 1148     		ldr	r0, .L38+52
 661 01f8 FFF7FEFF 		bl	LCD_PrintString
 662              	.LVL113:
 225:main.c        ****         CyDelay(2000);
 663              		.loc 1 225 0
 664 01fc 4FF4FA60 		mov	r0, #2000
 665 0200 FFF7FEFF 		bl	CyDelay
 666              	.LVL114:
 667              	.LBE2:
 226:main.c        ****         
 227:main.c        ****     }
 668              		.loc 1 227 0
 669 0204 09E7     		b	.L35
 670              	.L39:
 671 0206 00BF     		.align	2
 672              	.L38:
ARM GAS  C:\Users\dibiana1\AppData\Local\Temp\ccuDcsHK.s 			page 17


 673 0208 50000000 		.word	.LC7
 674 020c 60000000 		.word	.LC8
 675 0210 70000000 		.word	.LC9
 676 0214 80000000 		.word	.LC10
 677 0218 38000000 		.word	.LC5
 678 021c 00000000 		.word	cmdBytes
 679 0220 88000000 		.word	.LC11
 680 0224 98000000 		.word	.LC12
 681 0228 A4000000 		.word	.LC13
 682 022c B8000000 		.word	.LC14
 683 0230 CC000000 		.word	.LC15
 684 0234 E0000000 		.word	.LC16
 685 0238 F0000000 		.word	.LC17
 686 023c 04010000 		.word	.LC18
 687              		.cfi_endproc
 688              	.LFE66:
 689              		.size	main, .-main
 690              		.comm	cmdBytes,20,4
 691              		.section	.rodata.str1.4,"aMS",%progbits,1
 692              		.align	2
 693              	.LC0:
 694 0000 53657420 		.ascii	"Set b7:0 \000"
 694      62373A30 
 694      2000
 695 000a 0000     		.space	2
 696              	.LC1:
 697 000c 53657420 		.ascii	"Set b15:8 \000"
 697      6231353A 
 697      382000
 698 0017 00       		.space	1
 699              	.LC2:
 700 0018 53657420 		.ascii	"Set b23:16 \000"
 700      6232333A 
 700      31362000 
 701              	.LC3:
 702 0024 53657420 		.ascii	"Set b31:24 \000"
 702      6233313A 
 702      32342000 
 703              	.LC4:
 704 0030 56616C75 		.ascii	"Value:\000"
 704      653A00
 705 0037 00       		.space	1
 706              	.LC5:
 707 0038 257800   		.ascii	"%x\000"
 708 003b 00       		.space	1
 709              	.LC6:
 710 003c 42797465 		.ascii	"Byte%d value set.\000"
 710      25642076 
 710      616C7565 
 710      20736574 
 710      2E00
 711 004e 0000     		.space	2
 712              	.LC7:
 713 0050 52656757 		.ascii	"RegWrite CMD\000"
 713      72697465 
 713      20434D44 
 713      00
ARM GAS  C:\Users\dibiana1\AppData\Local\Temp\ccuDcsHK.s 			page 18


 714 005d 000000   		.space	3
 715              	.LC8:
 716 0060 35206279 		.ascii	"5 bytes total\000"
 716      74657320 
 716      746F7461 
 716      6C00
 717 006e 0000     		.space	2
 718              	.LC9:
 719 0070 53656C65 		.ascii	"Select an addr:\000"
 719      63742061 
 719      6E206164 
 719      64723A00 
 720              	.LC10:
 721 0080 41646472 		.ascii	"Addr:\000"
 721      3A00
 722 0086 0000     		.space	2
 723              	.LC11:
 724 0088 41646472 		.ascii	"Address set.\000"
 724      65737320 
 724      7365742E 
 724      00
 725 0095 000000   		.space	3
 726              	.LC12:
 727 0098 41646472 		.ascii	"Address:\000"
 727      6573733A 
 727      00
 728 00a1 000000   		.space	3
 729              	.LC13:
 730 00a4 434D4420 		.ascii	"CMD to be sent: \000"
 730      746F2062 
 730      65207365 
 730      6E743A20 
 730      00
 731 00b5 000000   		.space	3
 732              	.LC14:
 733 00b8 41646472 		.ascii	"Addr,B4,B3,B2,B1\000"
 733      2C42342C 
 733      42332C42 
 733      322C4231 
 733      00
 734 00c9 000000   		.space	3
 735              	.LC15:
 736 00cc 53656E64 		.ascii	"Sending addr... \000"
 736      696E6720 
 736      61646472 
 736      2E2E2E20 
 736      00
 737 00dd 000000   		.space	3
 738              	.LC16:
 739 00e0 41646472 		.ascii	"Addr received\000"
 739      20726563 
 739      65697665 
 739      6400
 740 00ee 0000     		.space	2
 741              	.LC17:
 742 00f0 53656E64 		.ascii	"Sending payload...\000"
 742      696E6720 
ARM GAS  C:\Users\dibiana1\AppData\Local\Temp\ccuDcsHK.s 			page 19


 742      7061796C 
 742      6F61642E 
 742      2E2E00
 743 0103 00       		.space	1
 744              	.LC18:
 745 0104 436F6D6D 		.ascii	"Command sent!\000"
 745      616E6420 
 745      73656E74 
 745      2100
 746              		.text
 747              	.Letext0:
 748              		.file 2 "c:\\program files (x86)\\cypress\\psoc creator\\4.4\\psoc creator\\import\\gnu\\arm\\5.4.
 749              		.file 3 "c:\\program files (x86)\\cypress\\psoc creator\\4.4\\psoc creator\\import\\gnu\\arm\\5.4.
 750              		.file 4 "c:\\program files (x86)\\cypress\\psoc creator\\4.4\\psoc creator\\import\\gnu\\arm\\5.4.
 751              		.file 5 "Generated_Source\\PSoC5/core_cm3.h"
 752              		.file 6 "Generated_Source\\PSoC5/OUT_BYTE.h"
 753              		.file 7 "Generated_Source\\PSoC5/LCD.h"
 754              		.file 8 "Generated_Source\\PSoC5/SW3.h"
 755              		.file 9 "c:\\program files (x86)\\cypress\\psoc creator\\4.4\\psoc creator\\import\\gnu\\arm\\5.4.
 756              		.file 10 "Generated_Source\\PSoC5/CyLib.h"
 757              		.file 11 "Generated_Source\\PSoC5/H2G_STRB_OUT.h"
 758              		.file 12 "Generated_Source\\PSoC5/H2G_STRB_IN.h"